; ModuleID = '27/1589.c'
source_filename = "27/1589.c"
target datalayout = "e-m:e-p270:32:32-p271:32:32-p272:64:64-i64:64-f80:128-n8:16:32:64-S128"
target triple = "x86_64-pc-linux-gnu"

@.str = private unnamed_addr constant [3 x i8] c"%d\00", align 1
@.str.1 = private unnamed_addr constant [4 x i8] c"%lf\00", align 1
@.str.2 = private unnamed_addr constant [19 x i8] c"x1=%.5lf;x2=%.5lf\0A\00", align 1
@.str.3 = private unnamed_addr constant [13 x i8] c"x1=x2=%.5lf\0A\00", align 1
@.str.4 = private unnamed_addr constant [37 x i8] c"x1=0.00000+%.5lfi;x2=0.00000-%.5lfi\0A\00", align 1
@.str.5 = private unnamed_addr constant [33 x i8] c"x1=%.5lf+%.5lfi;x2=%.5lf-%.5lfi\0A\00", align 1

; Function Attrs: noinline nounwind uwtable
define dso_local i32 @main() #0 {
  %1 = alloca i32, align 4
  %2 = alloca i32, align 4
  %3 = alloca i32, align 4
  %4 = alloca i32, align 4
  %5 = alloca double, align 8
  %6 = alloca double, align 8
  %7 = alloca double, align 8
  %8 = alloca [100 x double], align 16
  store i32 0, i32* %1, align 4
  %9 = call i32 (i8*, ...) @__isoc99_scanf(i8* getelementptr inbounds ([3 x i8], [3 x i8]* @.str, i64 0, i64 0), i32* %2)
  store i32 0, i32* %3, align 4
  br label %10

10:                                               ; preds = %20, %0
  %11 = load i32, i32* %3, align 4
  %12 = load i32, i32* %2, align 4
  %13 = mul nsw i32 3, %12
  %14 = icmp slt i32 %11, %13
  br i1 %14, label %15, label %23

15:                                               ; preds = %10
  %16 = load i32, i32* %3, align 4
  %17 = sext i32 %16 to i64
  %18 = getelementptr inbounds [100 x double], [100 x double]* %8, i64 0, i64 %17
  %19 = call i32 (i8*, ...) @__isoc99_scanf(i8* getelementptr inbounds ([4 x i8], [4 x i8]* @.str.1, i64 0, i64 0), double* %18)
  br label %20

20:                                               ; preds = %15
  %21 = load i32, i32* %3, align 4
  %22 = add nsw i32 %21, 1
  store i32 %22, i32* %3, align 4
  br label %10

23:                                               ; preds = %10
  store i32 0, i32* %4, align 4
  br label %24

24:                                               ; preds = %152, %23
  %25 = load i32, i32* %4, align 4
  %26 = load i32, i32* %2, align 4
  %27 = mul nsw i32 3, %26
  %28 = icmp slt i32 %25, %27
  br i1 %28, label %29, label %155

29:                                               ; preds = %24
  %30 = load i32, i32* %4, align 4
  %31 = srem i32 %30, 3
  %32 = icmp eq i32 %31, 0
  br i1 %32, label %33, label %150

33:                                               ; preds = %29
  %34 = load i32, i32* %4, align 4
  %35 = add nsw i32 %34, 1
  %36 = sext i32 %35 to i64
  %37 = getelementptr inbounds [100 x double], [100 x double]* %8, i64 0, i64 %36
  %38 = load double, double* %37, align 8
  %39 = load i32, i32* %4, align 4
  %40 = add nsw i32 %39, 1
  %41 = sext i32 %40 to i64
  %42 = getelementptr inbounds [100 x double], [100 x double]* %8, i64 0, i64 %41
  %43 = load double, double* %42, align 8
  %44 = fmul double %38, %43
  %45 = load i32, i32* %4, align 4
  %46 = sext i32 %45 to i64
  %47 = getelementptr inbounds [100 x double], [100 x double]* %8, i64 0, i64 %46
  %48 = load double, double* %47, align 8
  %49 = fmul double 4.000000e+00, %48
  %50 = load i32, i32* %4, align 4
  %51 = add nsw i32 %50, 2
  %52 = sext i32 %51 to i64
  %53 = getelementptr inbounds [100 x double], [100 x double]* %8, i64 0, i64 %52
  %54 = load double, double* %53, align 8
  %55 = fmul double %49, %54
  %56 = fsub double %44, %55
  store double %56, double* %7, align 8
  %57 = load double, double* %7, align 8
  %58 = fcmp ogt double %57, 0.000000e+00
  br i1 %58, label %59, label %93

59:                                               ; preds = %33
  %60 = load i32, i32* %4, align 4
  %61 = add nsw i32 %60, 1
  %62 = sext i32 %61 to i64
  %63 = getelementptr inbounds [100 x double], [100 x double]* %8, i64 0, i64 %62
  %64 = load double, double* %63, align 8
  %65 = fneg double %64
  %66 = load double, double* %7, align 8
  %67 = call double @sqrt(double %66) #3
  %68 = fadd double %65, %67
  %69 = load i32, i32* %4, align 4
  %70 = sext i32 %69 to i64
  %71 = getelementptr inbounds [100 x double], [100 x double]* %8, i64 0, i64 %70
  %72 = load double, double* %71, align 8
  %73 = fmul double 2.000000e+00, %72
  %74 = fdiv double %68, %73
  store double %74, double* %5, align 8
  %75 = load i32, i32* %4, align 4
  %76 = add nsw i32 %75, 1
  %77 = sext i32 %76 to i64
  %78 = getelementptr inbounds [100 x double], [100 x double]* %8, i64 0, i64 %77
  %79 = load double, double* %78, align 8
  %80 = fneg double %79
  %81 = load double, double* %7, align 8
  %82 = call double @sqrt(double %81) #3
  %83 = fsub double %80, %82
  %84 = load i32, i32* %4, align 4
  %85 = sext i32 %84 to i64
  %86 = getelementptr inbounds [100 x double], [100 x double]* %8, i64 0, i64 %85
  %87 = load double, double* %86, align 8
  %88 = fmul double 2.000000e+00, %87
  %89 = fdiv double %83, %88
  store double %89, double* %6, align 8
  %90 = load double, double* %5, align 8
  %91 = load double, double* %6, align 8
  %92 = call i32 (i8*, ...) @printf(i8* getelementptr inbounds ([19 x i8], [19 x i8]* @.str.2, i64 0, i64 0), double %90, double %91)
  br label %93

93:                                               ; preds = %59, %33
  %94 = load double, double* %7, align 8
  %95 = fcmp oeq double %94, 0.000000e+00
  br i1 %95, label %96, label %111

96:                                               ; preds = %93
  %97 = load i32, i32* %4, align 4
  %98 = add nsw i32 %97, 1
  %99 = sext i32 %98 to i64
  %100 = getelementptr inbounds [100 x double], [100 x double]* %8, i64 0, i64 %99
  %101 = load double, double* %100, align 8
  %102 = fneg double %101
  %103 = load i32, i32* %4, align 4
  %104 = sext i32 %103 to i64
  %105 = getelementptr inbounds [100 x double], [100 x double]* %8, i64 0, i64 %104
  %106 = load double, double* %105, align 8
  %107 = fmul double 2.000000e+00, %106
  %108 = fdiv double %102, %107
  store double %108, double* %5, align 8
  %109 = load double, double* %5, align 8
  %110 = call i32 (i8*, ...) @printf(i8* getelementptr inbounds ([13 x i8], [13 x i8]* @.str.3, i64 0, i64 0), double %109)
  br label %111

111:                                              ; preds = %96, %93
  %112 = load double, double* %7, align 8
  %113 = fcmp olt double %112, 0.000000e+00
  br i1 %113, label %114, label %149

114:                                              ; preds = %111
  %115 = load i32, i32* %4, align 4
  %116 = add nsw i32 %115, 1
  %117 = sext i32 %116 to i64
  %118 = getelementptr inbounds [100 x double], [100 x double]* %8, i64 0, i64 %117
  %119 = load double, double* %118, align 8
  %120 = fneg double %119
  %121 = load i32, i32* %4, align 4
  %122 = sext i32 %121 to i64
  %123 = getelementptr inbounds [100 x double], [100 x double]* %8, i64 0, i64 %122
  %124 = load double, double* %123, align 8
  %125 = fmul double 2.000000e+00, %124
  %126 = fdiv double %120, %125
  store double %126, double* %5, align 8
  %127 = load double, double* %7, align 8
  %128 = fneg double %127
  %129 = call double @sqrt(double %128) #3
  %130 = load i32, i32* %4, align 4
  %131 = sext i32 %130 to i64
  %132 = getelementptr inbounds [100 x double], [100 x double]* %8, i64 0, i64 %131
  %133 = load double, double* %132, align 8
  %134 = fmul double 2.000000e+00, %133
  %135 = fdiv double %129, %134
  store double %135, double* %6, align 8
  %136 = load double, double* %5, align 8
  %137 = fcmp oeq double %136, 0.000000e+00
  br i1 %137, label %138, label %142

138:                                              ; preds = %114
  %139 = load double, double* %6, align 8
  %140 = load double, double* %6, align 8
  %141 = call i32 (i8*, ...) @printf(i8* getelementptr inbounds ([37 x i8], [37 x i8]* @.str.4, i64 0, i64 0), double %139, double %140)
  br label %148

142:                                              ; preds = %114
  %143 = load double, double* %5, align 8
  %144 = load double, double* %6, align 8
  %145 = load double, double* %5, align 8
  %146 = load double, double* %6, align 8
  %147 = call i32 (i8*, ...) @printf(i8* getelementptr inbounds ([33 x i8], [33 x i8]* @.str.5, i64 0, i64 0), double %143, double %144, double %145, double %146)
  br label %148

148:                                              ; preds = %142, %138
  br label %149

149:                                              ; preds = %148, %111
  br label %151

150:                                              ; preds = %29
  br label %152

151:                                              ; preds = %149
  br label %152

152:                                              ; preds = %151, %150
  %153 = load i32, i32* %4, align 4
  %154 = add nsw i32 %153, 1
  store i32 %154, i32* %4, align 4
  br label %24

155:                                              ; preds = %24
  ret i32 0
}

declare dso_local i32 @__isoc99_scanf(i8*, ...) #1

; Function Attrs: nounwind
declare dso_local double @sqrt(double) #2

declare dso_local i32 @printf(i8*, ...) #1


!llvm.module.flags = !{!0}
!llvm.ident = !{!1}

!0 = !{i32 1, !"wchar_size", i32 4}
!1 = !{!"clang version 10.0.0-4ubuntu1 "}
